target datalayout = "e-m:e-p270:32:32-p271:32:32-p272:64:64-i64:64-i128:128-f80:128-n8:16:32:64-S128"
target triple = "x86_64-pc-linux-gnu"

@.str.20 = private unnamed_addr constant [48 x i8] c"Empty diagonal for a 3-dimensional periodic box\00", align 1
@.str.21 = private unnamed_addr constant [48 x i8] c"Empty diagonal for a 2-dimensional periodic box\00", align 1
@.str.22 = private unnamed_addr constant [119 x i8] c"Only triclinic boxes with the first vector parallel to the x-axis and the second vector in the xy-plane are supported.\00", align 1
@.str.23 = private unnamed_addr constant [68 x i8] c"The unit cell can not have off-diagonal x-components with screw pbc\00", align 1
@.str.24 = private unnamed_addr constant [29 x i8] c"Triclinic box is too skewed.\00", align 1

; Function Attrs: mustprogress nounwind uwtable
define linkonce_odr noundef float @_Zli5_reale(x86_fp80 noundef %0) #2 comdat {
  %2 = alloca x86_fp80, align 16
  store x86_fp80 %0, ptr %2, align 16, !tbaa !55
  %3 = load x86_fp80, ptr %2, align 16, !tbaa !55
  %4 = fptrunc x86_fp80 %3 to float
  ret float %4
}

; Function Attrs: inlinehint mustprogress nounwind uwtable
define linkonce_odr noundef float @_ZSt4fabsf(float noundef %0) #4 comdat {
  %2 = alloca float, align 4
  store float %0, ptr %2, align 4, !tbaa !50
  %3 = load float, ptr %2, align 4, !tbaa !50
  %4 = call float @llvm.fabs.f32(float %3)
  ret float %4
}

; Function Attrs: mustprogress uwtable
define noundef ptr @_Z9check_box7PbcTypePA3_Kf(i32 noundef %0, ptr noundef %1) #3 {
  %3 = alloca ptr, align 8
  %4 = alloca i32, align 4
  %5 = alloca ptr, align 8
  %6 = alloca ptr, align 8
  %7 = alloca i32, align 4
  store i32 %0, ptr %4, align 4, !tbaa !34
  store ptr %1, ptr %5, align 8, !tbaa !48
  call void @llvm.lifetime.start.p0(i64 8, ptr %6) #5
  %8 = load i32, ptr %4, align 4, !tbaa !34
  %9 = icmp eq i32 %8, 4
  br i1 %9, label %10, label %13

10:                                               ; preds = %2
  %11 = load ptr, ptr %5, align 8, !tbaa !48
  %12 = call noundef i32 @_Z12guessPbcTypePA3_Kf(ptr noundef %11)
  store i32 %12, ptr %4, align 4, !tbaa !34
  br label %13

13:                                               ; preds = %10, %2
  %14 = load i32, ptr %4, align 4, !tbaa !34
  %15 = icmp eq i32 %14, 1
  br i1 %15, label %16, label %17

16:                                               ; preds = %13
  store ptr null, ptr %3, align 8
  store i32 1, ptr %7, align 4
  br label %143

17:                                               ; preds = %13
  %18 = load i32, ptr %4, align 4, !tbaa !34
  %19 = icmp eq i32 %18, 0
  br i1 %19, label %20, label %39

20:                                               ; preds = %17
  %21 = load ptr, ptr %5, align 8, !tbaa !48
  %22 = getelementptr inbounds [3 x float], ptr %21, i64 0
  %23 = getelementptr inbounds [3 x float], ptr %22, i64 0, i64 0
  %24 = load float, ptr %23, align 4, !tbaa !50
  %25 = fcmp oeq float %24, 0.000000e+00
  br i1 %25, label %26, label %39

26:                                               ; preds = %20
  %27 = load ptr, ptr %5, align 8, !tbaa !48
  %28 = getelementptr inbounds [3 x float], ptr %27, i64 1
  %29 = getelementptr inbounds [3 x float], ptr %28, i64 0, i64 1
  %30 = load float, ptr %29, align 4, !tbaa !50
  %31 = fcmp oeq float %30, 0.000000e+00
  br i1 %31, label %32, label %39

32:                                               ; preds = %26
  %33 = load ptr, ptr %5, align 8, !tbaa !48
  %34 = getelementptr inbounds [3 x float], ptr %33, i64 2
  %35 = getelementptr inbounds [3 x float], ptr %34, i64 0, i64 2
  %36 = load float, ptr %35, align 4, !tbaa !50
  %37 = fcmp oeq float %36, 0.000000e+00
  br i1 %37, label %38, label %39

38:                                               ; preds = %32
  store ptr @.str.20, ptr %6, align 8, !tbaa !11
  br label %141

39:                                               ; preds = %32, %26, %20, %17
  %40 = load i32, ptr %4, align 4, !tbaa !34
  %41 = icmp eq i32 %40, 2
  br i1 %41, label %42, label %55

42:                                               ; preds = %39
  %43 = load ptr, ptr %5, align 8, !tbaa !48
  %44 = getelementptr inbounds [3 x float], ptr %43, i64 0
  %45 = getelementptr inbounds [3 x float], ptr %44, i64 0, i64 0
  %46 = load float, ptr %45, align 4, !tbaa !50
  %47 = fcmp oeq float %46, 0.000000e+00
  br i1 %47, label %48, label %55

48:                                               ; preds = %42
  %49 = load ptr, ptr %5, align 8, !tbaa !48
  %50 = getelementptr inbounds [3 x float], ptr %49, i64 1
  %51 = getelementptr inbounds [3 x float], ptr %50, i64 0, i64 1
  %52 = load float, ptr %51, align 4, !tbaa !50
  %53 = fcmp oeq float %52, 0.000000e+00
  br i1 %53, label %54, label %55

54:                                               ; preds = %48
  store ptr @.str.21, ptr %6, align 8, !tbaa !11
  br label %140

55:                                               ; preds = %48, %42, %39
  %56 = load ptr, ptr %5, align 8, !tbaa !48
  %57 = getelementptr inbounds [3 x float], ptr %56, i64 0
  %58 = getelementptr inbounds [3 x float], ptr %57, i64 0, i64 1
  %59 = load float, ptr %58, align 4, !tbaa !50
  %60 = fcmp une float %59, 0.000000e+00
  br i1 %60, label %73, label %61

61:                                               ; preds = %55
  %62 = load ptr, ptr %5, align 8, !tbaa !48
  %63 = getelementptr inbounds [3 x float], ptr %62, i64 0
  %64 = getelementptr inbounds [3 x float], ptr %63, i64 0, i64 2
  %65 = load float, ptr %64, align 4, !tbaa !50
  %66 = fcmp une float %65, 0.000000e+00
  br i1 %66, label %73, label %67

67:                                               ; preds = %61
  %68 = load ptr, ptr %5, align 8, !tbaa !48
  %69 = getelementptr inbounds [3 x float], ptr %68, i64 1
  %70 = getelementptr inbounds [3 x float], ptr %69, i64 0, i64 2
  %71 = load float, ptr %70, align 4, !tbaa !50
  %72 = fcmp une float %71, 0.000000e+00
  br i1 %72, label %73, label %74

73:                                               ; preds = %67, %61, %55
  store ptr @.str.22, ptr %6, align 8, !tbaa !11
  br label %139

74:                                               ; preds = %67
  %75 = load i32, ptr %4, align 4, !tbaa !34
  %76 = icmp eq i32 %75, 3
  br i1 %76, label %77, label %90

77:                                               ; preds = %74
  %78 = load ptr, ptr %5, align 8, !tbaa !48
  %79 = getelementptr inbounds [3 x float], ptr %78, i64 1
  %80 = getelementptr inbounds [3 x float], ptr %79, i64 0, i64 0
  %81 = load float, ptr %80, align 4, !tbaa !50
  %82 = fcmp une float %81, 0.000000e+00
  br i1 %82, label %89, label %83

83:                                               ; preds = %77
  %84 = load ptr, ptr %5, align 8, !tbaa !48
  %85 = getelementptr inbounds [3 x float], ptr %84, i64 2
  %86 = getelementptr inbounds [3 x float], ptr %85, i64 0, i64 0
  %87 = load float, ptr %86, align 4, !tbaa !50
  %88 = fcmp une float %87, 0.000000e+00
  br i1 %88, label %89, label %90

89:                                               ; preds = %83, %77
  store ptr @.str.23, ptr %6, align 8, !tbaa !11
  br label %138

90:                                               ; preds = %83, %74
  %91 = load ptr, ptr %5, align 8, !tbaa !48
  %92 = getelementptr inbounds [3 x float], ptr %91, i64 1
  %93 = getelementptr inbounds [3 x float], ptr %92, i64 0, i64 0
  %94 = load float, ptr %93, align 4, !tbaa !50
  %95 = call noundef float @_ZSt4fabsf(float noundef %94)
  %96 = call noundef float @_Zli5_reale(x86_fp80 noundef 0xK3FFE8000000000000000)
  %97 = fmul float 0x3FF0147AE0000000, %96
  %98 = load ptr, ptr %5, align 8, !tbaa !48
  %99 = getelementptr inbounds [3 x float], ptr %98, i64 0
  %100 = getelementptr inbounds [3 x float], ptr %99, i64 0, i64 0
  %101 = load float, ptr %100, align 4, !tbaa !50
  %102 = fmul float %97, %101
  %103 = fcmp ogt float %95, %102
  br i1 %103, label %135, label %104

104:                                              ; preds = %90
  %105 = load i32, ptr %4, align 4, !tbaa !34
  %106 = icmp ne i32 %105, 2
  br i1 %106, label %107, label %136

107:                                              ; preds = %104
  %108 = load ptr, ptr %5, align 8, !tbaa !48
  %109 = getelementptr inbounds [3 x float], ptr %108, i64 2
  %110 = getelementptr inbounds [3 x float], ptr %109, i64 0, i64 0
  %111 = load float, ptr %110, align 4, !tbaa !50
  %112 = call noundef float @_ZSt4fabsf(float noundef %111)
  %113 = call noundef float @_Zli5_reale(x86_fp80 noundef 0xK3FFE8000000000000000)
  %114 = fmul float 0x3FF0147AE0000000, %113
  %115 = load ptr, ptr %5, align 8, !tbaa !48
  %116 = getelementptr inbounds [3 x float], ptr %115, i64 0
  %117 = getelementptr inbounds [3 x float], ptr %116, i64 0, i64 0
  %118 = load float, ptr %117, align 4, !tbaa !50
  %119 = fmul float %114, %118
  %120 = fcmp ogt float %112, %119
  br i1 %120, label %135, label %121

121:                                              ; preds = %107
  %122 = load ptr, ptr %5, align 8, !tbaa !48
  %123 = getelementptr inbounds [3 x float], ptr %122, i64 2
  %124 = getelementptr inbounds [3 x float], ptr %123, i64 0, i64 1
  %125 = load float, ptr %124, align 4, !tbaa !50
  %126 = call noundef float @_ZSt4fabsf(float noundef %125)
  %127 = call noundef float @_Zli5_reale(x86_fp80 noundef 0xK3FFE8000000000000000)
  %128 = fmul float 0x3FF0147AE0000000, %127
  %129 = load ptr, ptr %5, align 8, !tbaa !48
  %130 = getelementptr inbounds [3 x float], ptr %129, i64 1
  %131 = getelementptr inbounds [3 x float], ptr %130, i64 0, i64 1
  %132 = load float, ptr %131, align 4, !tbaa !50
  %133 = fmul float %128, %132
  %134 = fcmp ogt float %126, %133
  br i1 %134, label %135, label %136

135:                                              ; preds = %121, %107, %90
  store ptr @.str.24, ptr %6, align 8, !tbaa !11
  br label %137

136:                                              ; preds = %121, %104
  store ptr null, ptr %6, align 8, !tbaa !11
  br label %137

137:                                              ; preds = %136, %135
  br label %138

138:                                              ; preds = %137, %89
  br label %139

139:                                              ; preds = %138, %73
  br label %140

140:                                              ; preds = %139, %54
  br label %141

141:                                              ; preds = %140, %38
  %142 = load ptr, ptr %6, align 8, !tbaa !11
  store ptr %142, ptr %3, align 8
  store i32 1, ptr %7, align 4
  br label %143

143:                                              ; preds = %141, %16
  call void @llvm.lifetime.end.p0(i64 8, ptr %6) #5
  %144 = load ptr, ptr %3, align 8
  ret ptr %144
}