; Function Attrs: mustprogress uwtable
define noundef ptr @_Z9check_box7PbcTypePA3_Kf(i32 noundef %0, ptr noundef %1) local_unnamed_addr #1 {
  %3 = icmp eq i32 %0, 4
  br i1 %3, label %4, label %6

4:                                                ; preds = %2
  %5 = tail call noundef i32 @_Z12guessPbcTypePA3_Kf(ptr noundef %1)
  br label %6

6:                                                ; preds = %4, %2
  %.025 = phi i32 [ %5, %4 ], [ %0, %2 ]
  switch i32 %.025, label %25 [
    i32 1, label %70
    i32 0, label %7
    i32 2, label %18
  ]

7:                                                ; preds = %6
  %8 = load float, ptr %1, align 4, !tbaa !21
  %9 = fcmp oeq float %8, 0.000000e+00
  br i1 %9, label %10, label %25

10:                                               ; preds = %7
  %11 = getelementptr inbounds nuw i8, ptr %1, i64 16
  %12 = load float, ptr %11, align 4, !tbaa !21
  %13 = fcmp oeq float %12, 0.000000e+00
  br i1 %13, label %14, label %25

14:                                               ; preds = %10
  %15 = getelementptr inbounds nuw i8, ptr %1, i64 32
  %16 = load float, ptr %15, align 4, !tbaa !21
  %17 = fcmp oeq float %16, 0.000000e+00
  br i1 %17, label %70, label %25

18:                                               ; preds = %6
  %19 = load float, ptr %1, align 4, !tbaa !21
  %20 = fcmp oeq float %19, 0.000000e+00
  br i1 %20, label %21, label %25

21:                                               ; preds = %18
  %22 = getelementptr inbounds nuw i8, ptr %1, i64 16
  %23 = load float, ptr %22, align 4, !tbaa !21
  %24 = fcmp oeq float %23, 0.000000e+00
  br i1 %24, label %70, label %25

25:                                               ; preds = %7, %10, %14, %6, %21, %18
  %26 = getelementptr inbounds nuw i8, ptr %1, i64 4
  %27 = load float, ptr %26, align 4, !tbaa !21
  %28 = fcmp une float %27, 0.000000e+00
  br i1 %28, label %70, label %29

29:                                               ; preds = %25
  %30 = getelementptr inbounds nuw i8, ptr %1, i64 8
  %31 = load float, ptr %30, align 4, !tbaa !21
  %32 = fcmp une float %31, 0.000000e+00
  br i1 %32, label %70, label %33

33:                                               ; preds = %29
  %34 = getelementptr inbounds nuw i8, ptr %1, i64 20
  %35 = load float, ptr %34, align 4, !tbaa !21
  %36 = fcmp une float %35, 0.000000e+00
  br i1 %36, label %70, label %37

37:                                               ; preds = %33
  %38 = getelementptr inbounds nuw i8, ptr %1, i64 12
  %39 = icmp eq i32 %.025, 3
  %.pre = load float, ptr %38, align 4, !tbaa !21
  br i1 %39, label %40, label %46

40:                                               ; preds = %37
  %41 = fcmp une float %.pre, 0.000000e+00
  br i1 %41, label %70, label %42

42:                                               ; preds = %40
  %43 = getelementptr inbounds nuw i8, ptr %1, i64 24
  %44 = load float, ptr %43, align 4, !tbaa !21
  %45 = fcmp une float %44, 0.000000e+00
  br i1 %45, label %70, label %.thread

46:                                               ; preds = %37
  %47 = tail call noundef float @llvm.fabs.f32(float %.pre)
  %48 = load float, ptr %1, align 4, !tbaa !21
  %49 = fmul float %48, 0x3FE0147AE0000000
  %50 = fcmp ogt float %47, %49
  br i1 %50, label %70, label %55

.thread:                                          ; preds = %42
  %51 = tail call noundef float @llvm.fabs.f32(float %.pre)
  %52 = load float, ptr %1, align 4, !tbaa !21
  %53 = fmul float %52, 0x3FE0147AE0000000
  %54 = fcmp ogt float %51, %53
  br i1 %54, label %70, label %.thread27

55:                                               ; preds = %46
  %.not = icmp eq i32 %.025, 2
  br i1 %.not, label %69, label %.thread27

.thread27:                                        ; preds = %.thread, %55
  %56 = phi float [ %49, %55 ], [ %53, %.thread ]
  %57 = getelementptr inbounds nuw i8, ptr %1, i64 24
  %58 = load float, ptr %57, align 4, !tbaa !21
  %59 = tail call noundef float @llvm.fabs.f32(float %58)
  %60 = fcmp ogt float %59, %56
  br i1 %60, label %70, label %61

61:                                               ; preds = %.thread27
  %62 = getelementptr inbounds nuw i8, ptr %1, i64 28
  %63 = load float, ptr %62, align 4, !tbaa !21
  %64 = tail call noundef float @llvm.fabs.f32(float %63)
  %65 = getelementptr inbounds nuw i8, ptr %1, i64 16
  %66 = load float, ptr %65, align 4, !tbaa !21
  %67 = fmul float %66, 0x3FE0147AE0000000
  %68 = fcmp ogt float %64, %67
  br i1 %68, label %70, label %69

69:                                               ; preds = %61, %55
  br label %70

70:                                               ; preds = %.thread, %69, %14, %21, %33, %29, %25, %42, %40, %61, %.thread27, %46, %6
  %.024 = phi ptr [ null, %6 ], [ null, %69 ], [ @.str.20, %14 ], [ @.str.21, %21 ], [ @.str.22, %33 ], [ @.str.22, %29 ], [ @.str.22, %25 ], [ @.str.23, %42 ], [ @.str.23, %40 ], [ @.str.24, %61 ], [ @.str.24, %.thread27 ], [ @.str.24, %46 ], [ @.str.24, %.thread ]
  ret ptr %.024
}